target datalayout = "e-m:e-p270:32:32-p271:32:32-p272:64:64-i64:64-i128:128-f80:128-n8:16:32:64-S128"
target triple = "x86_64-pc-linux-gnu"

@hf_pcnfsd_uid = internal global i32 0, align 4
@hf_pcnfsd_mapreq = internal global i32 0, align 4
@hf_pcnfsd_username = internal global i32 0, align 4

; Function Attrs: null_pointer_is_valid sspstrong uwtable
define internal i32 @dissect_pcnfsd_username(ptr noundef %0, i32 noundef %1, ptr noundef %2) #0 {
  %4 = alloca ptr, align 8
  %5 = alloca i32, align 4
  %6 = alloca ptr, align 8
  store ptr %0, ptr %4, align 8
  store i32 %1, ptr %5, align 4
  store ptr %2, ptr %6, align 8
  %7 = load ptr, ptr %4, align 8
  %8 = load ptr, ptr %6, align 8
  %9 = load i32, ptr @hf_pcnfsd_username, align 4
  %10 = load i32, ptr %5, align 4
  %11 = call i32 @dissect_rpc_string(ptr noundef %7, ptr noundef %8, i32 noundef %9, i32 noundef %10, ptr noundef null)
  ret i32 %11
}

; Function Attrs: null_pointer_is_valid sspstrong uwtable
define internal i32 @dissect_pcnfsd2_dissect_mapreq_arg_item(ptr noundef %0, i32 noundef %1, ptr noundef %2, ptr noundef %3, ptr noundef %4) #0 {
  %6 = alloca ptr, align 8
  %7 = alloca i32, align 4
  %8 = alloca ptr, align 8
  %9 = alloca ptr, align 8
  %10 = alloca ptr, align 8
  store ptr %0, ptr %6, align 8
  store i32 %1, ptr %7, align 4
  store ptr %2, ptr %8, align 8
  store ptr %3, ptr %9, align 8
  store ptr %4, ptr %10, align 8
  %11 = load ptr, ptr %9, align 8
  %12 = load i32, ptr @hf_pcnfsd_mapreq, align 4
  %13 = load ptr, ptr %6, align 8
  %14 = load i32, ptr %7, align 4
  %15 = call ptr @proto_tree_add_item(ptr noundef %11, i32 noundef %12, ptr noundef %13, i32 noundef %14, i32 noundef 4, i32 noundef 0)
  %16 = load i32, ptr %7, align 4
  %17 = add i32 %16, 4
  store i32 %17, ptr %7, align 4
  %18 = load ptr, ptr %6, align 8
  %19 = load ptr, ptr %9, align 8
  %20 = load i32, ptr @hf_pcnfsd_uid, align 4
  %21 = load i32, ptr %7, align 4
  %22 = call i32 @dissect_rpc_uint32(ptr noundef %18, ptr noundef %19, i32 noundef %20, i32 noundef %21)
  store i32 %22, ptr %7, align 4
  %23 = load ptr, ptr %6, align 8
  %24 = load i32, ptr %7, align 4
  %25 = load ptr, ptr %9, align 8
  %26 = call i32 @dissect_pcnfsd_username(ptr noundef %23, i32 noundef %24, ptr noundef %25)
  store i32 %26, ptr %7, align 4
  %27 = load i32, ptr %7, align 4
  ret i32 %27
}